target datalayout = "e-m:e-p270:32:32-p271:32:32-p272:64:64-i64:64-i128:128-f80:128-n8:16:32:64-S128"
target triple = "x86_64-pc-linux-gnu"

%"class.bParse::bDNA" = type { %class.b3AlignedObjectArray, %class.b3AlignedObjectArray.0, %class.b3AlignedObjectArray.2, %class.b3AlignedObjectArray.4, %class.b3AlignedObjectArray.6, %class.b3HashMap, %class.b3HashMap.10, i32, [4 x i8] }
%class.b3AlignedObjectArray = type <{ [4 x i8], i32, i32, [4 x i8], ptr, i8, [7 x i8] }>
%class.b3AlignedObjectArray.0 = type <{ [4 x i8], i32, i32, [4 x i8], ptr, i8, [7 x i8] }>
%class.b3AlignedObjectArray.2 = type <{ [4 x i8], i32, i32, [4 x i8], ptr, i8, [7 x i8] }>
%class.b3AlignedObjectArray.4 = type <{ [4 x i8], i32, i32, [4 x i8], ptr, i8, [7 x i8] }>
%class.b3AlignedObjectArray.6 = type <{ [4 x i8], i32, i32, [4 x i8], ptr, i8, [7 x i8] }>
%class.b3HashMap = type { %class.b3AlignedObjectArray, %class.b3AlignedObjectArray, %class.b3AlignedObjectArray, %class.b3AlignedObjectArray.8 }
%class.b3AlignedObjectArray.8 = type <{ [4 x i8], i32, i32, [4 x i8], ptr, i8, [7 x i8] }>
%class.b3HashMap.10 = type { %class.b3AlignedObjectArray, %class.b3AlignedObjectArray, %class.b3AlignedObjectArray, %class.b3AlignedObjectArray.11 }
%class.b3AlignedObjectArray.11 = type <{ [4 x i8], i32, i32, [4 x i8], ptr, i8, [7 x i8] }>

; Function Attrs: inlinehint mustprogress nounwind uwtable
define linkonce_odr dso_local noundef nonnull align 4 dereferenceable(4) ptr @_ZN20b3AlignedObjectArrayIiEixEi(ptr noundef nonnull align 8 dereferenceable(25) %0, i32 noundef %1) #2 comdat align 2 {
  %3 = alloca ptr, align 8
  %4 = alloca i32, align 4
  store ptr %0, ptr %3, align 8, !tbaa !36
  store i32 %1, ptr %4, align 4, !tbaa !51
  %5 = load ptr, ptr %3, align 8
  %6 = getelementptr inbounds nuw %class.b3AlignedObjectArray, ptr %5, i32 0, i32 4
  %7 = load ptr, ptr %6, align 8, !tbaa !77
  %8 = load i32, ptr %4, align 4, !tbaa !51
  %9 = sext i32 %8 to i64
  %10 = getelementptr inbounds i32, ptr %7, i64 %9
  ret ptr %10
}

; Function Attrs: mustprogress uwtable
define dso_local noundef zeroext i1 @_ZN6bParse4bDNA9flagEqualEi(ptr noundef nonnull align 8 dereferenceable(420) %0, i32 noundef %1) #0 align 2 {
  %3 = alloca ptr, align 8
  %4 = alloca i32, align 4
  %5 = alloca i32, align 4
  store ptr %0, ptr %3, align 8, !tbaa !4
  store i32 %1, ptr %4, align 4, !tbaa !51
  %6 = load ptr, ptr %3, align 8
  call void @llvm.lifetime.start.p0(i64 4, ptr %5) #14
  %7 = getelementptr inbounds nuw %"class.bParse::bDNA", ptr %6, i32 0, i32 0
  %8 = load i32, ptr %4, align 4, !tbaa !51
  %9 = call noundef nonnull align 4 dereferenceable(4) ptr @_ZN20b3AlignedObjectArrayIiEixEi(ptr noundef nonnull align 8 dereferenceable(25) %7, i32 noundef %8)
  %10 = load i32, ptr %9, align 4, !tbaa !51
  store i32 %10, ptr %5, align 4, !tbaa !51
  %11 = load i32, ptr %5, align 4, !tbaa !51
  %12 = icmp eq i32 %11, 2
  call void @llvm.lifetime.end.p0(i64 4, ptr %5) #14
  ret i1 %12
}